; Function Attrs: mustprogress nofree nounwind willreturn memory(argmem: readwrite) uwtable
define void @_ZN6icu_7711StringPieceC2EPKc(ptr noundef nonnull writeonly align 8 captures(none) dereferenceable(12) initializes((0, 12)) %0, ptr noundef %1) unnamed_addr #0 align 2 {
  store ptr %1, ptr %0, align 8, !tbaa !3
  %3 = icmp eq ptr %1, null
  br i1 %3, label %7, label %4

4:                                                ; preds = %2
  %5 = tail call i64 @strlen(ptr noundef nonnull dereferenceable(1) %1) #7
  %6 = trunc i64 %5 to i32
  br label %7

7:                                                ; preds = %2, %4
  %8 = phi i32 [ %6, %4 ], [ 0, %2 ]
  %9 = getelementptr inbounds nuw i8, ptr %0, i64 8
  store i32 %8, ptr %9, align 8, !tbaa !10
  ret void
}